; Function Attrs: nounwind sspstrong uwtable
define dso_local void @tcg_gen_st16_i64(ptr noundef %0, ptr noundef %1, i64 noundef %2) local_unnamed_addr #2 {
  %4 = tail call align 8 ptr @llvm.threadlocal.address.p0(ptr align 8 @tcg_ctx)
  %5 = load ptr, ptr %4, align 8
  %6 = ptrtoint ptr %0 to i64
  %7 = getelementptr inbounds nuw i8, ptr %5, i64 %6
  %8 = ptrtoint ptr %7 to i64
  %9 = ptrtoint ptr %1 to i64
  %10 = getelementptr inbounds nuw i8, ptr %5, i64 %9
  %11 = ptrtoint ptr %10 to i64
  %12 = tail call ptr @tcg_gen_op3(i32 noundef 75, i32 noundef 1, i64 noundef %8, i64 noundef %11, i64 noundef %2)
  ret void
}